target datalayout = "e-m:e-p270:32:32-p271:32:32-p272:64:64-i64:64-i128:128-f80:128-n8:16:32:64-S128"
target triple = "x86_64-pc-linux-gnu"

@proto_juniper = internal global i32 0, align 4
@.str.84 = private unnamed_addr constant [11 x i8] c"wtap_encap\00", align 1
@.str.85 = private unnamed_addr constant [9 x i8] c"udp.port\00", align 1

; Function Attrs: null_pointer_is_valid sspstrong uwtable
define hidden void @proto_reg_handoff_juniper() #0 {
  %1 = alloca ptr, align 8
  %2 = alloca ptr, align 8
  %3 = alloca ptr, align 8
  %4 = alloca ptr, align 8
  %5 = alloca ptr, align 8
  %6 = alloca ptr, align 8
  %7 = alloca ptr, align 8
  %8 = alloca ptr, align 8
  %9 = alloca ptr, align 8
  %10 = alloca ptr, align 8
  %11 = alloca ptr, align 8
  %12 = alloca ptr, align 8
  %13 = alloca ptr, align 8
  %14 = alloca ptr, align 8
  call void @llvm.lifetime.start.p0(i64 8, ptr %1) #5
  call void @llvm.lifetime.start.p0(i64 8, ptr %2) #5
  call void @llvm.lifetime.start.p0(i64 8, ptr %3) #5
  call void @llvm.lifetime.start.p0(i64 8, ptr %4) #5
  call void @llvm.lifetime.start.p0(i64 8, ptr %5) #5
  call void @llvm.lifetime.start.p0(i64 8, ptr %6) #5
  call void @llvm.lifetime.start.p0(i64 8, ptr %7) #5
  call void @llvm.lifetime.start.p0(i64 8, ptr %8) #5
  call void @llvm.lifetime.start.p0(i64 8, ptr %9) #5
  call void @llvm.lifetime.start.p0(i64 8, ptr %10) #5
  call void @llvm.lifetime.start.p0(i64 8, ptr %11) #5
  call void @llvm.lifetime.start.p0(i64 8, ptr %12) #5
  call void @llvm.lifetime.start.p0(i64 8, ptr %13) #5
  call void @llvm.lifetime.start.p0(i64 8, ptr %14) #5
  %15 = load i32, ptr @proto_juniper, align 4
  %16 = call ptr @create_dissector_handle(ptr noundef @dissect_juniper_atm2, i32 noundef %15)
  store ptr %16, ptr %2, align 8
  %17 = load i32, ptr @proto_juniper, align 4
  %18 = call ptr @create_dissector_handle(ptr noundef @dissect_juniper_atm1, i32 noundef %17)
  store ptr %18, ptr %1, align 8
  %19 = load i32, ptr @proto_juniper, align 4
  %20 = call ptr @create_dissector_handle(ptr noundef @dissect_juniper_pppoe, i32 noundef %19)
  store ptr %20, ptr %3, align 8
  %21 = load i32, ptr @proto_juniper, align 4
  %22 = call ptr @create_dissector_handle(ptr noundef @dissect_juniper_mlppp, i32 noundef %21)
  store ptr %22, ptr %4, align 8
  %23 = load i32, ptr @proto_juniper, align 4
  %24 = call ptr @create_dissector_handle(ptr noundef @dissect_juniper_mlfr, i32 noundef %23)
  store ptr %24, ptr %5, align 8
  %25 = load i32, ptr @proto_juniper, align 4
  %26 = call ptr @create_dissector_handle(ptr noundef @dissect_juniper_ether, i32 noundef %25)
  store ptr %26, ptr %6, align 8
  %27 = load i32, ptr @proto_juniper, align 4
  %28 = call ptr @create_dissector_handle(ptr noundef @dissect_juniper_ppp, i32 noundef %27)
  store ptr %28, ptr %7, align 8
  %29 = load i32, ptr @proto_juniper, align 4
  %30 = call ptr @create_dissector_handle(ptr noundef @dissect_juniper_frelay, i32 noundef %29)
  store ptr %30, ptr %8, align 8
  %31 = load i32, ptr @proto_juniper, align 4
  %32 = call ptr @create_dissector_handle(ptr noundef @dissect_juniper_chdlc, i32 noundef %31)
  store ptr %32, ptr %9, align 8
  %33 = load i32, ptr @proto_juniper, align 4
  %34 = call ptr @create_dissector_handle(ptr noundef @dissect_juniper_ggsn, i32 noundef %33)
  store ptr %34, ptr %10, align 8
  %35 = load i32, ptr @proto_juniper, align 4
  %36 = call ptr @create_dissector_handle(ptr noundef @dissect_juniper_vp, i32 noundef %35)
  store ptr %36, ptr %11, align 8
  %37 = load i32, ptr @proto_juniper, align 4
  %38 = call ptr @create_dissector_handle(ptr noundef @dissect_juniper_svcs, i32 noundef %37)
  store ptr %38, ptr %12, align 8
  %39 = load i32, ptr @proto_juniper, align 4
  %40 = call ptr @create_dissector_handle(ptr noundef @dissect_juniper_vn, i32 noundef %39)
  store ptr %40, ptr %13, align 8
  %41 = load i32, ptr @proto_juniper, align 4
  %42 = call ptr @create_dissector_handle(ptr noundef @dissect_juniper_st, i32 noundef %41)
  store ptr %42, ptr %14, align 8
  %43 = load ptr, ptr %2, align 8
  call void @dissector_add_uint(ptr noundef @.str.84, i32 noundef 68, ptr noundef %43)
  %44 = load ptr, ptr %1, align 8
  call void @dissector_add_uint(ptr noundef @.str.84, i32 noundef 67, ptr noundef %44)
  %45 = load ptr, ptr %3, align 8
  call void @dissector_add_uint(ptr noundef @.str.84, i32 noundef 76, ptr noundef %45)
  %46 = load ptr, ptr %4, align 8
  call void @dissector_add_uint(ptr noundef @.str.84, i32 noundef 81, ptr noundef %46)
  %47 = load ptr, ptr %5, align 8
  call void @dissector_add_uint(ptr noundef @.str.84, i32 noundef 82, ptr noundef %47)
  %48 = load ptr, ptr %6, align 8
  call void @dissector_add_uint(ptr noundef @.str.84, i32 noundef 83, ptr noundef %48)
  %49 = load ptr, ptr %7, align 8
  call void @dissector_add_uint(ptr noundef @.str.84, i32 noundef 84, ptr noundef %49)
  %50 = load ptr, ptr %8, align 8
  call void @dissector_add_uint(ptr noundef @.str.84, i32 noundef 85, ptr noundef %50)
  %51 = load ptr, ptr %9, align 8
  call void @dissector_add_uint(ptr noundef @.str.84, i32 noundef 86, ptr noundef %51)
  %52 = load ptr, ptr %10, align 8
  call void @dissector_add_uint(ptr noundef @.str.84, i32 noundef 87, ptr noundef %52)
  %53 = load ptr, ptr %11, align 8
  call void @dissector_add_uint(ptr noundef @.str.84, i32 noundef 91, ptr noundef %53)
  %54 = load ptr, ptr %12, align 8
  call void @dissector_add_uint(ptr noundef @.str.84, i32 noundef 151, ptr noundef %54)
  %55 = load ptr, ptr %13, align 8
  call void @dissector_add_uint(ptr noundef @.str.84, i32 noundef 181, ptr noundef %55)
  %56 = load ptr, ptr %14, align 8
  call void @dissector_add_uint(ptr noundef @.str.84, i32 noundef 197, ptr noundef %56)
  %57 = load ptr, ptr %13, align 8
  call void @dissector_add_for_decode_as_with_preference(ptr noundef @.str.85, ptr noundef %57)
  call void @llvm.lifetime.end.p0(i64 8, ptr %14) #5
  call void @llvm.lifetime.end.p0(i64 8, ptr %13) #5
  call void @llvm.lifetime.end.p0(i64 8, ptr %12) #5
  call void @llvm.lifetime.end.p0(i64 8, ptr %11) #5
  call void @llvm.lifetime.end.p0(i64 8, ptr %10) #5
  call void @llvm.lifetime.end.p0(i64 8, ptr %9) #5
  call void @llvm.lifetime.end.p0(i64 8, ptr %8) #5
  call void @llvm.lifetime.end.p0(i64 8, ptr %7) #5
  call void @llvm.lifetime.end.p0(i64 8, ptr %6) #5
  call void @llvm.lifetime.end.p0(i64 8, ptr %5) #5
  call void @llvm.lifetime.end.p0(i64 8, ptr %4) #5
  call void @llvm.lifetime.end.p0(i64 8, ptr %3) #5
  call void @llvm.lifetime.end.p0(i64 8, ptr %2) #5
  call void @llvm.lifetime.end.p0(i64 8, ptr %1) #5
  ret void
}