; Function Attrs: null_pointer_is_valid sspstrong uwtable
define hidden void @proto_reg_handoff_juniper() local_unnamed_addr #0 {
  %1 = load i32, ptr @proto_juniper, align 4
  %2 = tail call ptr @create_dissector_handle(ptr noundef nonnull @dissect_juniper_atm2, i32 noundef %1)
  %3 = load i32, ptr @proto_juniper, align 4
  %4 = tail call ptr @create_dissector_handle(ptr noundef nonnull @dissect_juniper_atm1, i32 noundef %3)
  %5 = load i32, ptr @proto_juniper, align 4
  %6 = tail call ptr @create_dissector_handle(ptr noundef nonnull @dissect_juniper_pppoe, i32 noundef %5)
  %7 = load i32, ptr @proto_juniper, align 4
  %8 = tail call ptr @create_dissector_handle(ptr noundef nonnull @dissect_juniper_mlppp, i32 noundef %7)
  %9 = load i32, ptr @proto_juniper, align 4
  %10 = tail call ptr @create_dissector_handle(ptr noundef nonnull @dissect_juniper_mlfr, i32 noundef %9)
  %11 = load i32, ptr @proto_juniper, align 4
  %12 = tail call ptr @create_dissector_handle(ptr noundef nonnull @dissect_juniper_ether, i32 noundef %11)
  %13 = load i32, ptr @proto_juniper, align 4
  %14 = tail call ptr @create_dissector_handle(ptr noundef nonnull @dissect_juniper_ppp, i32 noundef %13)
  %15 = load i32, ptr @proto_juniper, align 4
  %16 = tail call ptr @create_dissector_handle(ptr noundef nonnull @dissect_juniper_frelay, i32 noundef %15)
  %17 = load i32, ptr @proto_juniper, align 4
  %18 = tail call ptr @create_dissector_handle(ptr noundef nonnull @dissect_juniper_chdlc, i32 noundef %17)
  %19 = load i32, ptr @proto_juniper, align 4
  %20 = tail call ptr @create_dissector_handle(ptr noundef nonnull @dissect_juniper_ggsn, i32 noundef %19)
  %21 = load i32, ptr @proto_juniper, align 4
  %22 = tail call ptr @create_dissector_handle(ptr noundef nonnull @dissect_juniper_vp, i32 noundef %21)
  %23 = load i32, ptr @proto_juniper, align 4
  %24 = tail call ptr @create_dissector_handle(ptr noundef nonnull @dissect_juniper_svcs, i32 noundef %23)
  %25 = load i32, ptr @proto_juniper, align 4
  %26 = tail call ptr @create_dissector_handle(ptr noundef nonnull @dissect_juniper_vn, i32 noundef %25)
  %27 = load i32, ptr @proto_juniper, align 4
  %28 = tail call ptr @create_dissector_handle(ptr noundef nonnull @dissect_juniper_st, i32 noundef %27)
  tail call void @dissector_add_uint(ptr noundef nonnull @.str.84, i32 noundef 68, ptr noundef %2)
  tail call void @dissector_add_uint(ptr noundef nonnull @.str.84, i32 noundef 67, ptr noundef %4)
  tail call void @dissector_add_uint(ptr noundef nonnull @.str.84, i32 noundef 76, ptr noundef %6)
  tail call void @dissector_add_uint(ptr noundef nonnull @.str.84, i32 noundef 81, ptr noundef %8)
  tail call void @dissector_add_uint(ptr noundef nonnull @.str.84, i32 noundef 82, ptr noundef %10)
  tail call void @dissector_add_uint(ptr noundef nonnull @.str.84, i32 noundef 83, ptr noundef %12)
  tail call void @dissector_add_uint(ptr noundef nonnull @.str.84, i32 noundef 84, ptr noundef %14)
  tail call void @dissector_add_uint(ptr noundef nonnull @.str.84, i32 noundef 85, ptr noundef %16)
  tail call void @dissector_add_uint(ptr noundef nonnull @.str.84, i32 noundef 86, ptr noundef %18)
  tail call void @dissector_add_uint(ptr noundef nonnull @.str.84, i32 noundef 87, ptr noundef %20)
  tail call void @dissector_add_uint(ptr noundef nonnull @.str.84, i32 noundef 91, ptr noundef %22)
  tail call void @dissector_add_uint(ptr noundef nonnull @.str.84, i32 noundef 151, ptr noundef %24)
  tail call void @dissector_add_uint(ptr noundef nonnull @.str.84, i32 noundef 181, ptr noundef %26)
  tail call void @dissector_add_uint(ptr noundef nonnull @.str.84, i32 noundef 197, ptr noundef %28)
  tail call void @dissector_add_for_decode_as_with_preference(ptr noundef nonnull @.str.85, ptr noundef %26)
  ret void
}